; Function Attrs: nounwind uwtable
define dso_local noundef i32 @write_config_to_memfd(ptr noundef %0, ptr noundef readnone captures(none) %1) local_unnamed_addr #0 {
  %3 = load i8, ptr %0, align 8, !range !13, !noundef !14
  %4 = trunc nuw i8 %3 to i1
  br i1 %4, label %5, label %13

5:                                                ; preds = %2
  %6 = getelementptr inbounds nuw i8, ptr %0, i64 8
  %7 = load ptr, ptr %6, align 8
  %8 = getelementptr inbounds nuw i8, ptr %0, i64 16
  %9 = load ptr, ptr %8, align 8
  %10 = getelementptr inbounds nuw i8, ptr %0, i64 32
  %11 = tail call i32 @dump_to_memfd(ptr noundef %7, ptr noundef %9, ptr noundef nonnull %10)
  %12 = getelementptr inbounds nuw i8, ptr %0, i64 24
  store i32 %11, ptr %12, align 8
  br label %13

13:                                               ; preds = %5, %2
  ret i32 0
}